; Function Attrs: mustprogress nounwind uwtable
define void @_ZN4YAML6StreamD2Ev(ptr noundef nonnull readonly align 8 captures(none) dereferenceable(136) %0) unnamed_addr #5 align 2 personality ptr @__gxx_personality_v0 {
  %2 = getelementptr inbounds nuw i8, ptr %0, i64 112
  %3 = load ptr, ptr %2, align 8, !tbaa !8
  %4 = icmp eq ptr %3, null
  br i1 %4, label %6, label %5

5:                                                ; preds = %1
  tail call void @_ZdaPv(ptr noundef nonnull %3) #17
  br label %6

6:                                                ; preds = %5, %1
  %7 = getelementptr inbounds nuw i8, ptr %0, i64 32
  %8 = load ptr, ptr %7, align 8, !tbaa !49
  %.not.i.i = icmp eq ptr %8, null
  br i1 %.not.i.i, label %_ZNSt5dequeIcSaIcEED2Ev.exit, label %9

9:                                                ; preds = %6
  %10 = getelementptr inbounds nuw i8, ptr %0, i64 104
  %11 = getelementptr inbounds nuw i8, ptr %0, i64 72
  %12 = load ptr, ptr %11, align 8, !tbaa !50
  %13 = load ptr, ptr %10, align 8, !tbaa !51
  %14 = getelementptr inbounds nuw i8, ptr %13, i64 8
  %15 = icmp ult ptr %12, %14
  br i1 %15, label %.lr.ph.i.i.i, label %_ZNSt11_Deque_baseIcSaIcEE16_M_destroy_nodesEPPcS3_.exit.i.i

.lr.ph.i.i.i:                                     ; preds = %9, %.lr.ph.i.i.i
  %.06.i.i.i = phi ptr [ %17, %.lr.ph.i.i.i ], [ %12, %9 ]
  %16 = load ptr, ptr %.06.i.i.i, align 8, !tbaa !52
  tail call void @_ZdlPv(ptr noundef %16) #17
  %17 = getelementptr inbounds nuw i8, ptr %.06.i.i.i, i64 8
  %18 = icmp ult ptr %.06.i.i.i, %13
  br i1 %18, label %.lr.ph.i.i.i, label %_ZNSt11_Deque_baseIcSaIcEE16_M_destroy_nodesEPPcS3_.exit.loopexit.i.i, !llvm.loop !53

_ZNSt11_Deque_baseIcSaIcEE16_M_destroy_nodesEPPcS3_.exit.loopexit.i.i: ; preds = %.lr.ph.i.i.i
  %.pre.i.i = load ptr, ptr %7, align 8, !tbaa !49
  br label %_ZNSt11_Deque_baseIcSaIcEE16_M_destroy_nodesEPPcS3_.exit.i.i

_ZNSt11_Deque_baseIcSaIcEE16_M_destroy_nodesEPPcS3_.exit.i.i: ; preds = %_ZNSt11_Deque_baseIcSaIcEE16_M_destroy_nodesEPPcS3_.exit.loopexit.i.i, %9
  %19 = phi ptr [ %.pre.i.i, %_ZNSt11_Deque_baseIcSaIcEE16_M_destroy_nodesEPPcS3_.exit.loopexit.i.i ], [ %8, %9 ]
  tail call void @_ZdlPv(ptr noundef %19) #17
  br label %_ZNSt5dequeIcSaIcEED2Ev.exit

_ZNSt5dequeIcSaIcEED2Ev.exit:                     ; preds = %6, %_ZNSt11_Deque_baseIcSaIcEE16_M_destroy_nodesEPPcS3_.exit.i.i
  ret void
}